; Function Attrs: mustprogress nofree norecurse nosync nounwind willreturn memory(argmem: write) uwtable
define dso_local void @init_diffstat_widths(ptr noundef writeonly captures(none) initializes((384, 396)) %0) local_unnamed_addr #15 {
  %2 = getelementptr inbounds nuw i8, ptr %0, i64 384
  store i32 -1, ptr %2, align 8, !tbaa !223
  %3 = getelementptr inbounds nuw i8, ptr %0, i64 388
  store i32 -1, ptr %3, align 4, !tbaa !224
  %4 = getelementptr inbounds nuw i8, ptr %0, i64 392
  store i32 -1, ptr %4, align 8, !tbaa !225
  ret void
}